target datalayout = "e-m:e-p270:32:32-p271:32:32-p272:64:64-i64:64-i128:128-f80:128-n8:16:32:64-S128"
target triple = "x86_64-pc-linux-gnu"

; Function Attrs: nounwind uwtable
define ptr @monotone_hermite_set(i32 noundef %0, ptr noundef %1, ptr noundef %2) #0 {
  %4 = alloca ptr, align 8
  %5 = alloca i32, align 4
  %6 = alloca ptr, align 8
  %7 = alloca ptr, align 8
  %8 = alloca i32, align 4
  %9 = alloca i32, align 4
  %10 = alloca ptr, align 8
  %11 = alloca ptr, align 8
  %12 = alloca i32, align 4
  %13 = alloca i32, align 4
  %14 = alloca i32, align 4
  %15 = alloca float, align 4
  %16 = alloca float, align 4
  %17 = alloca float, align 4
  store i32 %0, ptr %5, align 4, !tbaa !6
  store ptr %1, ptr %6, align 8, !tbaa !10
  store ptr %2, ptr %7, align 8, !tbaa !10
  %18 = load i32, ptr %5, align 4, !tbaa !6
  %19 = icmp sle i32 %18, 1
  br i1 %19, label %20, label %21

20:                                               ; preds = %3
  store ptr null, ptr %4, align 8
  br label %247

21:                                               ; preds = %3
  call void @llvm.lifetime.start.p0(i64 4, ptr %8) #6
  store i32 0, ptr %8, align 4, !tbaa !6
  br label %22

22:                                               ; preds = %43, %21
  %23 = load i32, ptr %8, align 4, !tbaa !6
  %24 = load i32, ptr %5, align 4, !tbaa !6
  %25 = sub nsw i32 %24, 1
  %26 = icmp slt i32 %23, %25
  br i1 %26, label %28, label %27

27:                                               ; preds = %22
  store i32 2, ptr %9, align 4
  br label %46

28:                                               ; preds = %22
  %29 = load ptr, ptr %6, align 8, !tbaa !10
  %30 = load i32, ptr %8, align 4, !tbaa !6
  %31 = add nsw i32 %30, 1
  %32 = sext i32 %31 to i64
  %33 = getelementptr inbounds float, ptr %29, i64 %32
  %34 = load float, ptr %33, align 4, !tbaa !13
  %35 = load ptr, ptr %6, align 8, !tbaa !10
  %36 = load i32, ptr %8, align 4, !tbaa !6
  %37 = sext i32 %36 to i64
  %38 = getelementptr inbounds float, ptr %35, i64 %37
  %39 = load float, ptr %38, align 4, !tbaa !13
  %40 = fcmp reassoc nsz arcp contract afn ole float %34, %39
  br i1 %40, label %41, label %42

41:                                               ; preds = %28
  store ptr null, ptr %4, align 8
  store i32 1, ptr %9, align 4
  br label %46

42:                                               ; preds = %28
  br label %43

43:                                               ; preds = %42
  %44 = load i32, ptr %8, align 4, !tbaa !6
  %45 = add nsw i32 %44, 1
  store i32 %45, ptr %8, align 4, !tbaa !6
  br label %22

46:                                               ; preds = %41, %27
  call void @llvm.lifetime.end.p0(i64 4, ptr %8) #6
  %47 = load i32, ptr %9, align 4
  switch i32 %47, label %249 [
    i32 2, label %48
    i32 1, label %247
  ]

48:                                               ; preds = %46
  call void @llvm.lifetime.start.p0(i64 8, ptr %10) #6
  %49 = load i32, ptr %5, align 4, !tbaa !6
  %50 = sext i32 %49 to i64
  %51 = call noalias ptr @calloc(i64 noundef %50, i64 noundef 4) #7
  store ptr %51, ptr %10, align 8, !tbaa !10
  call void @llvm.lifetime.start.p0(i64 8, ptr %11) #6
  %52 = load i32, ptr %5, align 4, !tbaa !6
  %53 = add nsw i32 %52, 1
  %54 = sext i32 %53 to i64
  %55 = call noalias ptr @calloc(i64 noundef %54, i64 noundef 4) #7
  store ptr %55, ptr %11, align 8, !tbaa !10
  call void @llvm.lifetime.start.p0(i64 4, ptr %12) #6
  store i32 0, ptr %12, align 4, !tbaa !6
  br label %56

56:                                               ; preds = %92, %48
  %57 = load i32, ptr %12, align 4, !tbaa !6
  %58 = load i32, ptr %5, align 4, !tbaa !6
  %59 = sub nsw i32 %58, 1
  %60 = icmp slt i32 %57, %59
  br i1 %60, label %62, label %61

61:                                               ; preds = %56
  store i32 5, ptr %9, align 4
  call void @llvm.lifetime.end.p0(i64 4, ptr %12) #6
  br label %95

62:                                               ; preds = %56
  %63 = load ptr, ptr %7, align 8, !tbaa !10
  %64 = load i32, ptr %12, align 4, !tbaa !6
  %65 = add nsw i32 %64, 1
  %66 = sext i32 %65 to i64
  %67 = getelementptr inbounds float, ptr %63, i64 %66
  %68 = load float, ptr %67, align 4, !tbaa !13
  %69 = load ptr, ptr %7, align 8, !tbaa !10
  %70 = load i32, ptr %12, align 4, !tbaa !6
  %71 = sext i32 %70 to i64
  %72 = getelementptr inbounds float, ptr %69, i64 %71
  %73 = load float, ptr %72, align 4, !tbaa !13
  %74 = fsub reassoc nsz arcp contract afn float %68, %73
  %75 = load ptr, ptr %6, align 8, !tbaa !10
  %76 = load i32, ptr %12, align 4, !tbaa !6
  %77 = add nsw i32 %76, 1
  %78 = sext i32 %77 to i64
  %79 = getelementptr inbounds float, ptr %75, i64 %78
  %80 = load float, ptr %79, align 4, !tbaa !13
  %81 = load ptr, ptr %6, align 8, !tbaa !10
  %82 = load i32, ptr %12, align 4, !tbaa !6
  %83 = sext i32 %82 to i64
  %84 = getelementptr inbounds float, ptr %81, i64 %83
  %85 = load float, ptr %84, align 4, !tbaa !13
  %86 = fsub reassoc nsz arcp contract afn float %80, %85
  %87 = fdiv reassoc nsz arcp contract afn float %74, %86
  %88 = load ptr, ptr %10, align 8, !tbaa !10
  %89 = load i32, ptr %12, align 4, !tbaa !6
  %90 = sext i32 %89 to i64
  %91 = getelementptr inbounds float, ptr %88, i64 %90
  store float %87, ptr %91, align 4, !tbaa !13
  br label %92

92:                                               ; preds = %62
  %93 = load i32, ptr %12, align 4, !tbaa !6
  %94 = add nsw i32 %93, 1
  store i32 %94, ptr %12, align 4, !tbaa !6
  br label %56

95:                                               ; preds = %61
  %96 = load ptr, ptr %10, align 8, !tbaa !10
  %97 = load i32, ptr %5, align 4, !tbaa !6
  %98 = sub nsw i32 %97, 2
  %99 = sext i32 %98 to i64
  %100 = getelementptr inbounds float, ptr %96, i64 %99
  %101 = load float, ptr %100, align 4, !tbaa !13
  %102 = load ptr, ptr %10, align 8, !tbaa !10
  %103 = load i32, ptr %5, align 4, !tbaa !6
  %104 = sub nsw i32 %103, 1
  %105 = sext i32 %104 to i64
  %106 = getelementptr inbounds float, ptr %102, i64 %105
  store float %101, ptr %106, align 4, !tbaa !13
  %107 = load ptr, ptr %10, align 8, !tbaa !10
  %108 = getelementptr inbounds float, ptr %107, i64 0
  %109 = load float, ptr %108, align 4, !tbaa !13
  %110 = load ptr, ptr %11, align 8, !tbaa !10
  %111 = getelementptr inbounds float, ptr %110, i64 0
  store float %109, ptr %111, align 4, !tbaa !13
  %112 = load ptr, ptr %10, align 8, !tbaa !10
  %113 = load i32, ptr %5, align 4, !tbaa !6
  %114 = sub nsw i32 %113, 1
  %115 = sext i32 %114 to i64
  %116 = getelementptr inbounds float, ptr %112, i64 %115
  %117 = load float, ptr %116, align 4, !tbaa !13
  %118 = load ptr, ptr %11, align 8, !tbaa !10
  %119 = load i32, ptr %5, align 4, !tbaa !6
  %120 = sub nsw i32 %119, 1
  %121 = sext i32 %120 to i64
  %122 = getelementptr inbounds float, ptr %118, i64 %121
  store float %117, ptr %122, align 4, !tbaa !13
  call void @llvm.lifetime.start.p0(i64 4, ptr %13) #6
  store i32 1, ptr %13, align 4, !tbaa !6
  br label %123

123:                                              ; preds = %147, %95
  %124 = load i32, ptr %13, align 4, !tbaa !6
  %125 = load i32, ptr %5, align 4, !tbaa !6
  %126 = sub nsw i32 %125, 1
  %127 = icmp slt i32 %124, %126
  br i1 %127, label %129, label %128

128:                                              ; preds = %123
  store i32 8, ptr %9, align 4
  call void @llvm.lifetime.end.p0(i64 4, ptr %13) #6
  br label %150

129:                                              ; preds = %123
  %130 = load ptr, ptr %10, align 8, !tbaa !10
  %131 = load i32, ptr %13, align 4, !tbaa !6
  %132 = sub nsw i32 %131, 1
  %133 = sext i32 %132 to i64
  %134 = getelementptr inbounds float, ptr %130, i64 %133
  %135 = load float, ptr %134, align 4, !tbaa !13
  %136 = load ptr, ptr %10, align 8, !tbaa !10
  %137 = load i32, ptr %13, align 4, !tbaa !6
  %138 = sext i32 %137 to i64
  %139 = getelementptr inbounds float, ptr %136, i64 %138
  %140 = load float, ptr %139, align 4, !tbaa !13
  %141 = fadd reassoc nsz arcp contract afn float %135, %140
  %142 = fmul reassoc nsz arcp contract afn float %141, 5.000000e-01
  %143 = load ptr, ptr %11, align 8, !tbaa !10
  %144 = load i32, ptr %13, align 4, !tbaa !6
  %145 = sext i32 %144 to i64
  %146 = getelementptr inbounds float, ptr %143, i64 %145
  store float %142, ptr %146, align 4, !tbaa !13
  br label %147

147:                                              ; preds = %129
  %148 = load i32, ptr %13, align 4, !tbaa !6
  %149 = add nsw i32 %148, 1
  store i32 %149, ptr %13, align 4, !tbaa !6
  br label %123

150:                                              ; preds = %128
  call void @llvm.lifetime.start.p0(i64 4, ptr %14) #6
  store i32 0, ptr %14, align 4, !tbaa !6
  br label %151

151:                                              ; preds = %241, %150
  %152 = load i32, ptr %14, align 4, !tbaa !6
  %153 = load i32, ptr %5, align 4, !tbaa !6
  %154 = icmp slt i32 %152, %153
  br i1 %154, label %156, label %155

155:                                              ; preds = %151
  store i32 11, ptr %9, align 4
  call void @llvm.lifetime.end.p0(i64 4, ptr %14) #6
  br label %244

156:                                              ; preds = %151
  %157 = load ptr, ptr %10, align 8, !tbaa !10
  %158 = load i32, ptr %14, align 4, !tbaa !6
  %159 = sext i32 %158 to i64
  %160 = getelementptr inbounds float, ptr %157, i64 %159
  %161 = load float, ptr %160, align 4, !tbaa !13
  %162 = call reassoc nsz arcp contract afn float @llvm.fabs.f32(float %161)
  %163 = fcmp reassoc nsz arcp contract afn olt float %162, 0x3820000000000000
  br i1 %163, label %164, label %174

164:                                              ; preds = %156
  %165 = load ptr, ptr %11, align 8, !tbaa !10
  %166 = load i32, ptr %14, align 4, !tbaa !6
  %167 = sext i32 %166 to i64
  %168 = getelementptr inbounds float, ptr %165, i64 %167
  store float 0.000000e+00, ptr %168, align 4, !tbaa !13
  %169 = load ptr, ptr %11, align 8, !tbaa !10
  %170 = load i32, ptr %14, align 4, !tbaa !6
  %171 = add nsw i32 %170, 1
  %172 = sext i32 %171 to i64
  %173 = getelementptr inbounds float, ptr %169, i64 %172
  store float 0.000000e+00, ptr %173, align 4, !tbaa !13
  br label %240

174:                                              ; preds = %156
  call void @llvm.lifetime.start.p0(i64 4, ptr %15) #6
  %175 = load ptr, ptr %11, align 8, !tbaa !10
  %176 = load i32, ptr %14, align 4, !tbaa !6
  %177 = sext i32 %176 to i64
  %178 = getelementptr inbounds float, ptr %175, i64 %177
  %179 = load float, ptr %178, align 4, !tbaa !13
  %180 = load ptr, ptr %10, align 8, !tbaa !10
  %181 = load i32, ptr %14, align 4, !tbaa !6
  %182 = sext i32 %181 to i64
  %183 = getelementptr inbounds float, ptr %180, i64 %182
  %184 = load float, ptr %183, align 4, !tbaa !13
  %185 = fdiv reassoc nsz arcp contract afn float %179, %184
  store float %185, ptr %15, align 4, !tbaa !13
  call void @llvm.lifetime.start.p0(i64 4, ptr %16) #6
  %186 = load ptr, ptr %11, align 8, !tbaa !10
  %187 = load i32, ptr %14, align 4, !tbaa !6
  %188 = add nsw i32 %187, 1
  %189 = sext i32 %188 to i64
  %190 = getelementptr inbounds float, ptr %186, i64 %189
  %191 = load float, ptr %190, align 4, !tbaa !13
  %192 = load ptr, ptr %10, align 8, !tbaa !10
  %193 = load i32, ptr %14, align 4, !tbaa !6
  %194 = sext i32 %193 to i64
  %195 = getelementptr inbounds float, ptr %192, i64 %194
  %196 = load float, ptr %195, align 4, !tbaa !13
  %197 = fdiv reassoc nsz arcp contract afn float %191, %196
  store float %197, ptr %16, align 4, !tbaa !13
  call void @llvm.lifetime.start.p0(i64 4, ptr %17) #6
  %198 = load float, ptr %15, align 4, !tbaa !13
  %199 = load float, ptr %15, align 4, !tbaa !13
  %200 = fmul reassoc nsz arcp contract afn float %198, %199
  %201 = load float, ptr %16, align 4, !tbaa !13
  %202 = load float, ptr %16, align 4, !tbaa !13
  %203 = fmul reassoc nsz arcp contract afn float %201, %202
  %204 = fadd reassoc nsz arcp contract afn float %200, %203
  store float %204, ptr %17, align 4, !tbaa !13
  %205 = load float, ptr %17, align 4, !tbaa !13
  %206 = fcmp reassoc nsz arcp contract afn ogt float %205, 9.000000e+00
  br i1 %206, label %207, label %239

207:                                              ; preds = %174
  %208 = load float, ptr %15, align 4, !tbaa !13
  %209 = fmul reassoc nsz arcp contract afn float 3.000000e+00, %208
  %210 = load ptr, ptr %10, align 8, !tbaa !10
  %211 = load i32, ptr %14, align 4, !tbaa !6
  %212 = sext i32 %211 to i64
  %213 = getelementptr inbounds float, ptr %210, i64 %212
  %214 = load float, ptr %213, align 4, !tbaa !13
  %215 = fmul reassoc nsz arcp contract afn float %209, %214
  %216 = load float, ptr %17, align 4, !tbaa !13
  %217 = call reassoc nsz arcp contract afn float @llvm.sqrt.f32(float %216)
  %218 = fdiv reassoc nsz arcp contract afn float %215, %217
  %219 = load ptr, ptr %11, align 8, !tbaa !10
  %220 = load i32, ptr %14, align 4, !tbaa !6
  %221 = sext i32 %220 to i64
  %222 = getelementptr inbounds float, ptr %219, i64 %221
  store float %218, ptr %222, align 4, !tbaa !13
  %223 = load float, ptr %16, align 4, !tbaa !13
  %224 = fmul reassoc nsz arcp contract afn float 3.000000e+00, %223
  %225 = load ptr, ptr %10, align 8, !tbaa !10
  %226 = load i32, ptr %14, align 4, !tbaa !6
  %227 = sext i32 %226 to i64
  %228 = getelementptr inbounds float, ptr %225, i64 %227
  %229 = load float, ptr %228, align 4, !tbaa !13
  %230 = fmul reassoc nsz arcp contract afn float %224, %229
  %231 = load float, ptr %17, align 4, !tbaa !13
  %232 = call reassoc nsz arcp contract afn float @llvm.sqrt.f32(float %231)
  %233 = fdiv reassoc nsz arcp contract afn float %230, %232
  %234 = load ptr, ptr %11, align 8, !tbaa !10
  %235 = load i32, ptr %14, align 4, !tbaa !6
  %236 = add nsw i32 %235, 1
  %237 = sext i32 %236 to i64
  %238 = getelementptr inbounds float, ptr %234, i64 %237
  store float %233, ptr %238, align 4, !tbaa !13
  br label %239

239:                                              ; preds = %207, %174
  call void @llvm.lifetime.end.p0(i64 4, ptr %17) #6
  call void @llvm.lifetime.end.p0(i64 4, ptr %16) #6
  call void @llvm.lifetime.end.p0(i64 4, ptr %15) #6
  br label %240

240:                                              ; preds = %239, %164
  br label %241

241:                                              ; preds = %240
  %242 = load i32, ptr %14, align 4, !tbaa !6
  %243 = add nsw i32 %242, 1
  store i32 %243, ptr %14, align 4, !tbaa !6
  br label %151

244:                                              ; preds = %155
  %245 = load ptr, ptr %10, align 8, !tbaa !10
  call void @free(ptr noundef %245) #6
  %246 = load ptr, ptr %11, align 8, !tbaa !10
  store ptr %246, ptr %4, align 8
  store i32 1, ptr %9, align 4
  call void @llvm.lifetime.end.p0(i64 8, ptr %11) #6
  call void @llvm.lifetime.end.p0(i64 8, ptr %10) #6
  br label %247

247:                                              ; preds = %244, %46, %20
  %248 = load ptr, ptr %4, align 8
  ret ptr %248

249:                                              ; preds = %46
  unreachable
}