; Function Attrs: nounwind memory(readwrite, argmem: read) uwtable
define noalias noundef ptr @monotone_hermite_set(i32 noundef %0, ptr noundef readonly captures(none) %1, ptr noundef readonly captures(none) %2) #3 {
  %4 = icmp slt i32 %0, 2
  br i1 %4, label %.loopexit, label %.preheader90

.preheader90:                                     ; preds = %3
  %5 = add nsw i32 %0, -1
  %wide.trip.count = zext nneg i32 %5 to i64
  br label %6

6:                                                ; preds = %.preheader90, %7
  %indvars.iv = phi i64 [ 0, %.preheader90 ], [ %indvars.iv.next, %7 ]
  %exitcond.not = icmp eq i64 %indvars.iv, %wide.trip.count
  br i1 %exitcond.not, label %.lr.ph.preheader, label %7

7:                                                ; preds = %6
  %indvars.iv.next = add nuw nsw i64 %indvars.iv, 1
  %8 = getelementptr inbounds nuw float, ptr %1, i64 %indvars.iv.next
  %9 = load float, ptr %8, align 4, !tbaa !6
  %10 = getelementptr inbounds nuw float, ptr %1, i64 %indvars.iv
  %11 = load float, ptr %10, align 4, !tbaa !6
  %12 = fcmp reassoc nsz arcp contract afn ugt float %9, %11
  br i1 %12, label %6, label %.loopexit

.lr.ph.preheader:                                 ; preds = %6
  %13 = zext nneg i32 %0 to i64
  %14 = tail call noalias ptr @calloc(i64 noundef %13, i64 noundef 4) #12
  %15 = add nuw nsw i32 %0, 1
  %16 = zext nneg i32 %15 to i64
  %17 = tail call noalias ptr @calloc(i64 noundef %16, i64 noundef 4) #12
  %.pre = load float, ptr %2, align 4, !tbaa !6
  %.pre116 = load float, ptr %1, align 4, !tbaa !6
  br label %.lr.ph

._crit_edge:                                      ; preds = %.lr.ph
  %.phi.trans.insert = getelementptr float, ptr %14, i64 %13
  %.phi.trans.insert117 = getelementptr i8, ptr %.phi.trans.insert, i64 -8
  %.pre118 = load float, ptr %.phi.trans.insert117, align 4, !tbaa !6
  %18 = getelementptr inbounds nuw float, ptr %14, i64 %wide.trip.count
  store float %.pre118, ptr %18, align 4, !tbaa !6
  %19 = load float, ptr %14, align 4, !tbaa !6
  store float %19, ptr %17, align 4, !tbaa !6
  %20 = getelementptr inbounds nuw float, ptr %17, i64 %wide.trip.count
  store float %.pre118, ptr %20, align 4, !tbaa !6
  %.not = icmp eq i32 %0, 2
  br i1 %.not, label %.lr.ph97.preheader, label %.lr.ph95.preheader

.lr.ph95.preheader:                               ; preds = %._crit_edge
  %smax = tail call i32 @llvm.smax.i32(i32 %5, i32 2)
  %wide.trip.count108 = zext nneg i32 %smax to i64
  br label %.lr.ph95

.lr.ph:                                           ; preds = %.lr.ph.preheader, %.lr.ph
  %21 = phi float [ %.pre116, %.lr.ph.preheader ], [ %27, %.lr.ph ]
  %22 = phi float [ %.pre, %.lr.ph.preheader ], [ %24, %.lr.ph ]
  %indvars.iv100 = phi i64 [ 0, %.lr.ph.preheader ], [ %indvars.iv.next101, %.lr.ph ]
  %indvars.iv.next101 = add nuw nsw i64 %indvars.iv100, 1
  %23 = getelementptr inbounds nuw float, ptr %2, i64 %indvars.iv.next101
  %24 = load float, ptr %23, align 4, !tbaa !6
  %25 = fsub reassoc nsz arcp contract afn float %24, %22
  %26 = getelementptr inbounds nuw float, ptr %1, i64 %indvars.iv.next101
  %27 = load float, ptr %26, align 4, !tbaa !6
  %28 = fsub reassoc nsz arcp contract afn float %27, %21
  %29 = fdiv reassoc nsz arcp contract afn float %25, %28
  %30 = getelementptr inbounds nuw float, ptr %14, i64 %indvars.iv100
  store float %29, ptr %30, align 4, !tbaa !6
  %exitcond104.not = icmp eq i64 %indvars.iv.next101, %wide.trip.count
  br i1 %exitcond104.not, label %._crit_edge, label %.lr.ph

.lr.ph97.preheader:                               ; preds = %.lr.ph95, %._crit_edge
  %smax113 = tail call i32 @llvm.smax.i32(i32 %0, i32 1)
  %wide.trip.count114 = zext nneg i32 %smax113 to i64
  br label %.lr.ph97

.lr.ph95:                                         ; preds = %.lr.ph95.preheader, %.lr.ph95
  %indvars.iv105 = phi i64 [ 1, %.lr.ph95.preheader ], [ %indvars.iv.next106, %.lr.ph95 ]
  %31 = getelementptr float, ptr %14, i64 %indvars.iv105
  %32 = getelementptr i8, ptr %31, i64 -4
  %33 = load float, ptr %32, align 4, !tbaa !6
  %34 = load float, ptr %31, align 4, !tbaa !6
  %35 = fadd reassoc nsz arcp contract afn float %34, %33
  %36 = fmul reassoc nsz arcp contract afn float %35, 5.000000e-01
  %37 = getelementptr inbounds nuw float, ptr %17, i64 %indvars.iv105
  store float %36, ptr %37, align 4, !tbaa !6
  %indvars.iv.next106 = add nuw nsw i64 %indvars.iv105, 1
  %exitcond109.not = icmp eq i64 %indvars.iv.next106, %wide.trip.count108
  br i1 %exitcond109.not, label %.lr.ph97.preheader, label %.lr.ph95

._crit_edge98:                                    ; preds = %62
  tail call void @free(ptr noundef nonnull %14) #13
  br label %.loopexit

.lr.ph97:                                         ; preds = %.lr.ph97.preheader, %62
  %indvars.iv110 = phi i64 [ 0, %.lr.ph97.preheader ], [ %indvars.iv.next111, %62 ]
  %38 = getelementptr inbounds nuw float, ptr %14, i64 %indvars.iv110
  %39 = load float, ptr %38, align 4, !tbaa !6
  %40 = tail call reassoc nsz arcp contract afn float @llvm.fabs.f32(float %39)
  %41 = fcmp reassoc nsz arcp contract afn olt float %40, 0x3820000000000000
  %42 = getelementptr inbounds nuw float, ptr %17, i64 %indvars.iv110
  br i1 %41, label %43, label %45

43:                                               ; preds = %.lr.ph97
  store float 0.000000e+00, ptr %42, align 4, !tbaa !6
  %44 = getelementptr inbounds nuw i8, ptr %42, i64 4
  store float 0.000000e+00, ptr %44, align 4, !tbaa !6
  br label %62

45:                                               ; preds = %.lr.ph97
  %46 = load float, ptr %42, align 4, !tbaa !6
  %47 = fdiv reassoc nsz arcp contract afn float %46, %39
  %48 = getelementptr inbounds nuw i8, ptr %42, i64 4
  %49 = load float, ptr %48, align 4, !tbaa !6
  %50 = fdiv reassoc nsz arcp contract afn float %49, %39
  %51 = fmul reassoc nsz arcp contract afn float %47, %47
  %52 = fmul reassoc nsz arcp contract afn float %50, %50
  %53 = fadd reassoc nsz arcp contract afn float %52, %51
  %54 = fcmp reassoc nsz arcp contract afn ogt float %53, 9.000000e+00
  br i1 %54, label %55, label %62

55:                                               ; preds = %45
  %56 = fmul reassoc nsz arcp contract afn float %39, 3.000000e+00
  %57 = fmul reassoc nsz arcp contract afn float %56, %47
  %58 = tail call reassoc nsz arcp contract afn float @llvm.sqrt.f32(float %53)
  %59 = fdiv reassoc nsz arcp contract afn float %57, %58
  store float %59, ptr %42, align 4, !tbaa !6
  %60 = fmul reassoc nsz arcp contract afn float %56, %50
  %61 = fdiv reassoc nsz arcp contract afn float %60, %58
  store float %61, ptr %48, align 4, !tbaa !6
  br label %62

62:                                               ; preds = %45, %55, %43
  %indvars.iv.next111 = add nuw nsw i64 %indvars.iv110, 1
  %exitcond115.not = icmp eq i64 %indvars.iv.next111, %wide.trip.count114
  br i1 %exitcond115.not, label %._crit_edge98, label %.lr.ph97

.loopexit:                                        ; preds = %7, %3, %._crit_edge98
  %.0 = phi ptr [ %17, %._crit_edge98 ], [ null, %3 ], [ null, %7 ]
  ret ptr %.0
}